target datalayout = "e-m:e-p270:32:32-p271:32:32-p272:64:64-i64:64-i128:128-f80:128-n8:16:32:64-S128"
target triple = "x86_64-pc-linux-gnu"

%struct.UDataMemory = type { ptr, ptr, ptr, i8, ptr, ptr, i32 }
%struct.PointerTOC = type { i32, i32, [1 x %struct.PointerTOCEntry] }
%struct.PointerTOCEntry = type { ptr, ptr }

; Function Attrs: mustprogress nounwind uwtable
define internal noundef i32 @_ZL20pointerTOCEntryCountPK11UDataMemory(ptr noundef %0) #0 {
  %2 = alloca ptr, align 8
  %3 = alloca ptr, align 8
  store ptr %0, ptr %2, align 8, !tbaa !16
  call void @llvm.lifetime.start.p0(i64 8, ptr %3) #5
  %4 = load ptr, ptr %2, align 8, !tbaa !16
  %5 = getelementptr inbounds nuw %struct.UDataMemory, ptr %4, i32 0, i32 2
  %6 = load ptr, ptr %5, align 8, !tbaa !28
  store ptr %6, ptr %3, align 8, !tbaa !3
  %7 = load ptr, ptr %3, align 8, !tbaa !3
  %8 = icmp ne ptr %7, null
  br i1 %8, label %9, label %13

9:                                                ; preds = %1
  %10 = load ptr, ptr %3, align 8, !tbaa !3
  %11 = getelementptr inbounds nuw %struct.PointerTOC, ptr %10, i32 0, i32 0
  %12 = load i32, ptr %11, align 8, !tbaa !42
  br label %14

13:                                               ; preds = %1
  br label %14

14:                                               ; preds = %13, %9
  %15 = phi i32 [ %12, %9 ], [ 0, %13 ]
  call void @llvm.lifetime.end.p0(i64 8, ptr %3) #5
  ret i32 %15
}